target datalayout = "e-m:e-p270:32:32-p271:32:32-p272:64:64-i64:64-i128:128-f80:128-n8:16:32:64-S128"
target triple = "x86_64-pc-linux-gnu"

%struct.lxb_html_tokenizer = type { ptr, ptr, ptr, ptr, ptr, ptr, ptr, ptr, ptr, ptr, ptr, ptr, ptr, ptr, ptr, i64, ptr, ptr, ptr, ptr, ptr, i64, i64, ptr, ptr, i64, i64, i32, i32, i8, i32, i32, i8, ptr, i64 }
%struct.lxb_html_token_t = type { ptr, ptr, i64, i64, ptr, ptr, ptr, ptr, ptr, i64, i64, i32 }

; Function Attrs: nounwind uwtable
define internal void @lxb_html_token_clean(ptr noundef %0) #0 {
  %2 = alloca ptr, align 8
  store ptr %0, ptr %2, align 8
  %3 = load ptr, ptr %2, align 8
  call void @llvm.memset.p0.i64(ptr align 8 %3, i8 0, i64 96, i1 false)
  ret void
}

; Function Attrs: nounwind uwtable
define internal ptr @lxb_html_tokenizer_state_comment_end_bang(ptr noundef %0, ptr noundef %1, ptr noundef %2) #0 {
  %4 = alloca ptr, align 8
  %5 = alloca ptr, align 8
  %6 = alloca ptr, align 8
  %7 = alloca ptr, align 8
  store ptr %0, ptr %5, align 8
  store ptr %1, ptr %6, align 8
  store ptr %2, ptr %7, align 8
  %8 = load ptr, ptr %6, align 8
  %9 = load i8, ptr %8, align 1
  %10 = zext i8 %9 to i32
  %11 = icmp eq i32 %10, 45
  br i1 %11, label %12, label %17

12:                                               ; preds = %3
  %13 = load ptr, ptr %5, align 8
  %14 = getelementptr inbounds %struct.lxb_html_tokenizer, ptr %13, i32 0, i32 0
  store ptr @lxb_html_tokenizer_state_comment_end_dash, ptr %14, align 8
  %15 = load ptr, ptr %6, align 8
  %16 = getelementptr inbounds i8, ptr %15, i64 1
  store ptr %16, ptr %4, align 8
  br label %156

17:                                               ; preds = %3
  %18 = load ptr, ptr %6, align 8
  %19 = load i8, ptr %18, align 1
  %20 = zext i8 %19 to i32
  %21 = icmp eq i32 %20, 62
  br i1 %21, label %22, label %81

22:                                               ; preds = %17
  %23 = load ptr, ptr %5, align 8
  %24 = getelementptr inbounds %struct.lxb_html_tokenizer, ptr %23, i32 0, i32 0
  store ptr @lxb_html_tokenizer_state_data_before, ptr %24, align 8
  %25 = load ptr, ptr %5, align 8
  %26 = getelementptr inbounds %struct.lxb_html_tokenizer, ptr %25, i32 0, i32 11
  %27 = load ptr, ptr %26, align 8
  %28 = load ptr, ptr %6, align 8
  %29 = call ptr @lxb_html_tokenizer_error_add(ptr noundef %27, ptr noundef %28, i32 noundef 17)
  br label %30

30:                                               ; preds = %22
  %31 = load ptr, ptr %5, align 8
  %32 = getelementptr inbounds %struct.lxb_html_tokenizer, ptr %31, i32 0, i32 16
  %33 = load ptr, ptr %32, align 8
  %34 = load ptr, ptr %5, align 8
  %35 = getelementptr inbounds %struct.lxb_html_tokenizer, ptr %34, i32 0, i32 8
  %36 = load ptr, ptr %35, align 8
  %37 = getelementptr inbounds %struct.lxb_html_token_t, ptr %36, i32 0, i32 4
  store ptr %33, ptr %37, align 8
  %38 = load ptr, ptr %5, align 8
  %39 = getelementptr inbounds %struct.lxb_html_tokenizer, ptr %38, i32 0, i32 17
  %40 = load ptr, ptr %39, align 8
  %41 = load ptr, ptr %5, align 8
  %42 = getelementptr inbounds %struct.lxb_html_tokenizer, ptr %41, i32 0, i32 8
  %43 = load ptr, ptr %42, align 8
  %44 = getelementptr inbounds %struct.lxb_html_token_t, ptr %43, i32 0, i32 5
  store ptr %40, ptr %44, align 8
  br label %45

45:                                               ; preds = %30
  br label %46

46:                                               ; preds = %45
  %47 = load ptr, ptr %5, align 8
  %48 = getelementptr inbounds %struct.lxb_html_tokenizer, ptr %47, i32 0, i32 2
  %49 = load ptr, ptr %48, align 8
  %50 = load ptr, ptr %5, align 8
  %51 = load ptr, ptr %5, align 8
  %52 = getelementptr inbounds %struct.lxb_html_tokenizer, ptr %51, i32 0, i32 8
  %53 = load ptr, ptr %52, align 8
  %54 = load ptr, ptr %5, align 8
  %55 = getelementptr inbounds %struct.lxb_html_tokenizer, ptr %54, i32 0, i32 3
  %56 = load ptr, ptr %55, align 8
  %57 = call ptr %49(ptr noundef %50, ptr noundef %53, ptr noundef %56)
  %58 = load ptr, ptr %5, align 8
  %59 = getelementptr inbounds %struct.lxb_html_tokenizer, ptr %58, i32 0, i32 8
  store ptr %57, ptr %59, align 8
  %60 = load ptr, ptr %5, align 8
  %61 = getelementptr inbounds %struct.lxb_html_tokenizer, ptr %60, i32 0, i32 8
  %62 = load ptr, ptr %61, align 8
  %63 = icmp eq ptr %62, null
  br i1 %63, label %64, label %74

64:                                               ; preds = %46
  %65 = load ptr, ptr %5, align 8
  %66 = getelementptr inbounds %struct.lxb_html_tokenizer, ptr %65, i32 0, i32 31
  %67 = load i32, ptr %66, align 8
  %68 = icmp eq i32 %67, 0
  br i1 %68, label %69, label %72

69:                                               ; preds = %64
  %70 = load ptr, ptr %5, align 8
  %71 = getelementptr inbounds %struct.lxb_html_tokenizer, ptr %70, i32 0, i32 31
  store i32 1, ptr %71, align 8
  br label %72

72:                                               ; preds = %69, %64
  %73 = load ptr, ptr %7, align 8
  store ptr %73, ptr %4, align 8
  br label %156

74:                                               ; preds = %46
  %75 = load ptr, ptr %5, align 8
  %76 = getelementptr inbounds %struct.lxb_html_tokenizer, ptr %75, i32 0, i32 8
  %77 = load ptr, ptr %76, align 8
  call void @lxb_html_token_clean(ptr noundef %77)
  br label %78

78:                                               ; preds = %74
  %79 = load ptr, ptr %6, align 8
  %80 = getelementptr inbounds i8, ptr %79, i64 1
  store ptr %80, ptr %4, align 8
  br label %156

81:                                               ; preds = %17
  %82 = load ptr, ptr %6, align 8
  %83 = load i8, ptr %82, align 1
  %84 = zext i8 %83 to i32
  %85 = icmp eq i32 %84, 0
  br i1 %85, label %86, label %150

86:                                               ; preds = %81
  %87 = load ptr, ptr %5, align 8
  %88 = getelementptr inbounds %struct.lxb_html_tokenizer, ptr %87, i32 0, i32 32
  %89 = load i8, ptr %88, align 4
  %90 = trunc i8 %89 to i1
  br i1 %90, label %91, label %149

91:                                               ; preds = %86
  %92 = load ptr, ptr %5, align 8
  %93 = getelementptr inbounds %struct.lxb_html_tokenizer, ptr %92, i32 0, i32 11
  %94 = load ptr, ptr %93, align 8
  %95 = load ptr, ptr %5, align 8
  %96 = getelementptr inbounds %struct.lxb_html_tokenizer, ptr %95, i32 0, i32 20
  %97 = load ptr, ptr %96, align 8
  %98 = call ptr @lxb_html_tokenizer_error_add(ptr noundef %94, ptr noundef %97, i32 noundef 13)
  br label %99

99:                                               ; preds = %91
  %100 = load ptr, ptr %5, align 8
  %101 = getelementptr inbounds %struct.lxb_html_tokenizer, ptr %100, i32 0, i32 16
  %102 = load ptr, ptr %101, align 8
  %103 = load ptr, ptr %5, align 8
  %104 = getelementptr inbounds %struct.lxb_html_tokenizer, ptr %103, i32 0, i32 8
  %105 = load ptr, ptr %104, align 8
  %106 = getelementptr inbounds %struct.lxb_html_token_t, ptr %105, i32 0, i32 4
  store ptr %102, ptr %106, align 8
  %107 = load ptr, ptr %5, align 8
  %108 = getelementptr inbounds %struct.lxb_html_tokenizer, ptr %107, i32 0, i32 17
  %109 = load ptr, ptr %108, align 8
  %110 = load ptr, ptr %5, align 8
  %111 = getelementptr inbounds %struct.lxb_html_tokenizer, ptr %110, i32 0, i32 8
  %112 = load ptr, ptr %111, align 8
  %113 = getelementptr inbounds %struct.lxb_html_token_t, ptr %112, i32 0, i32 5
  store ptr %109, ptr %113, align 8
  br label %114

114:                                              ; preds = %99
  br label %115

115:                                              ; preds = %114
  %116 = load ptr, ptr %5, align 8
  %117 = getelementptr inbounds %struct.lxb_html_tokenizer, ptr %116, i32 0, i32 2
  %118 = load ptr, ptr %117, align 8
  %119 = load ptr, ptr %5, align 8
  %120 = load ptr, ptr %5, align 8
  %121 = getelementptr inbounds %struct.lxb_html_tokenizer, ptr %120, i32 0, i32 8
  %122 = load ptr, ptr %121, align 8
  %123 = load ptr, ptr %5, align 8
  %124 = getelementptr inbounds %struct.lxb_html_tokenizer, ptr %123, i32 0, i32 3
  %125 = load ptr, ptr %124, align 8
  %126 = call ptr %118(ptr noundef %119, ptr noundef %122, ptr noundef %125)
  %127 = load ptr, ptr %5, align 8
  %128 = getelementptr inbounds %struct.lxb_html_tokenizer, ptr %127, i32 0, i32 8
  store ptr %126, ptr %128, align 8
  %129 = load ptr, ptr %5, align 8
  %130 = getelementptr inbounds %struct.lxb_html_tokenizer, ptr %129, i32 0, i32 8
  %131 = load ptr, ptr %130, align 8
  %132 = icmp eq ptr %131, null
  br i1 %132, label %133, label %143

133:                                              ; preds = %115
  %134 = load ptr, ptr %5, align 8
  %135 = getelementptr inbounds %struct.lxb_html_tokenizer, ptr %134, i32 0, i32 31
  %136 = load i32, ptr %135, align 8
  %137 = icmp eq i32 %136, 0
  br i1 %137, label %138, label %141

138:                                              ; preds = %133
  %139 = load ptr, ptr %5, align 8
  %140 = getelementptr inbounds %struct.lxb_html_tokenizer, ptr %139, i32 0, i32 31
  store i32 1, ptr %140, align 8
  br label %141

141:                                              ; preds = %138, %133
  %142 = load ptr, ptr %7, align 8
  store ptr %142, ptr %4, align 8
  br label %156

143:                                              ; preds = %115
  %144 = load ptr, ptr %5, align 8
  %145 = getelementptr inbounds %struct.lxb_html_tokenizer, ptr %144, i32 0, i32 8
  %146 = load ptr, ptr %145, align 8
  call void @lxb_html_token_clean(ptr noundef %146)
  br label %147

147:                                              ; preds = %143
  %148 = load ptr, ptr %7, align 8
  store ptr %148, ptr %4, align 8
  br label %156

149:                                              ; preds = %86
  br label %150

150:                                              ; preds = %149, %81
  br label %151

151:                                              ; preds = %150
  br label %152

152:                                              ; preds = %151
  %153 = load ptr, ptr %5, align 8
  %154 = getelementptr inbounds %struct.lxb_html_tokenizer, ptr %153, i32 0, i32 0
  store ptr @lxb_html_tokenizer_state_comment, ptr %154, align 8
  %155 = load ptr, ptr %6, align 8
  store ptr %155, ptr %4, align 8
  br label %156

156:                                              ; preds = %152, %147, %141, %78, %72, %12
  %157 = load ptr, ptr %4, align 8
  ret ptr %157
}