; Function Attrs: nounwind uwtable
define internal ptr @lxb_html_tokenizer_state_comment_end_bang(ptr noundef %0, ptr noundef %1, ptr noundef readnone %2) #0 {
  %4 = load i8, ptr %1, align 1
  switch i8 %4, label %66 [
    i8 45, label %5
    i8 62, label %7
    i8 0, label %34
  ]

5:                                                ; preds = %3
  store ptr @lxb_html_tokenizer_state_comment_end_dash, ptr %0, align 8
  %6 = getelementptr inbounds i8, ptr %1, i64 1
  br label %67

7:                                                ; preds = %3
  store ptr @lxb_html_tokenizer_state_data_before, ptr %0, align 8
  %8 = getelementptr inbounds i8, ptr %0, i64 88
  %9 = load ptr, ptr %8, align 8
  %10 = tail call ptr @lxb_html_tokenizer_error_add(ptr noundef %9, ptr noundef nonnull %1, i32 noundef 17) #5
  %11 = getelementptr inbounds i8, ptr %0, i64 128
  %12 = load ptr, ptr %11, align 8
  %13 = getelementptr inbounds i8, ptr %0, i64 64
  %14 = load ptr, ptr %13, align 8
  %15 = getelementptr inbounds i8, ptr %14, i64 32
  store ptr %12, ptr %15, align 8
  %16 = getelementptr inbounds i8, ptr %0, i64 136
  %17 = load ptr, ptr %16, align 8
  %18 = load ptr, ptr %13, align 8
  %19 = getelementptr inbounds i8, ptr %18, i64 40
  store ptr %17, ptr %19, align 8
  %20 = getelementptr inbounds i8, ptr %0, i64 16
  %21 = load ptr, ptr %20, align 8
  %22 = load ptr, ptr %13, align 8
  %23 = getelementptr inbounds i8, ptr %0, i64 24
  %24 = load ptr, ptr %23, align 8
  %25 = tail call ptr %21(ptr noundef nonnull %0, ptr noundef %22, ptr noundef %24) #5
  store ptr %25, ptr %13, align 8
  %26 = icmp eq ptr %25, null
  br i1 %26, label %27, label %32

27:                                               ; preds = %7
  %28 = getelementptr inbounds i8, ptr %0, i64 232
  %29 = load i32, ptr %28, align 8
  %30 = icmp eq i32 %29, 0
  br i1 %30, label %31, label %67

31:                                               ; preds = %27
  store i32 1, ptr %28, align 8
  br label %67

32:                                               ; preds = %7
  tail call void @llvm.memset.p0.i64(ptr noundef nonnull align 8 dereferenceable(96) %25, i8 0, i64 96, i1 false)
  %33 = getelementptr inbounds i8, ptr %1, i64 1
  br label %67

34:                                               ; preds = %3
  %35 = getelementptr inbounds i8, ptr %0, i64 236
  %36 = load i8, ptr %35, align 4
  %37 = and i8 %36, 1
  %.not = icmp eq i8 %37, 0
  br i1 %.not, label %66, label %38

38:                                               ; preds = %34
  %39 = getelementptr inbounds i8, ptr %0, i64 88
  %40 = load ptr, ptr %39, align 8
  %41 = getelementptr inbounds i8, ptr %0, i64 160
  %42 = load ptr, ptr %41, align 8
  %43 = tail call ptr @lxb_html_tokenizer_error_add(ptr noundef %40, ptr noundef %42, i32 noundef 13) #5
  %44 = getelementptr inbounds i8, ptr %0, i64 128
  %45 = load ptr, ptr %44, align 8
  %46 = getelementptr inbounds i8, ptr %0, i64 64
  %47 = load ptr, ptr %46, align 8
  %48 = getelementptr inbounds i8, ptr %47, i64 32
  store ptr %45, ptr %48, align 8
  %49 = getelementptr inbounds i8, ptr %0, i64 136
  %50 = load ptr, ptr %49, align 8
  %51 = load ptr, ptr %46, align 8
  %52 = getelementptr inbounds i8, ptr %51, i64 40
  store ptr %50, ptr %52, align 8
  %53 = getelementptr inbounds i8, ptr %0, i64 16
  %54 = load ptr, ptr %53, align 8
  %55 = load ptr, ptr %46, align 8
  %56 = getelementptr inbounds i8, ptr %0, i64 24
  %57 = load ptr, ptr %56, align 8
  %58 = tail call ptr %54(ptr noundef nonnull %0, ptr noundef %55, ptr noundef %57) #5
  store ptr %58, ptr %46, align 8
  %59 = icmp eq ptr %58, null
  br i1 %59, label %60, label %65

60:                                               ; preds = %38
  %61 = getelementptr inbounds i8, ptr %0, i64 232
  %62 = load i32, ptr %61, align 8
  %63 = icmp eq i32 %62, 0
  br i1 %63, label %64, label %67

64:                                               ; preds = %60
  store i32 1, ptr %61, align 8
  br label %67

65:                                               ; preds = %38
  tail call void @llvm.memset.p0.i64(ptr noundef nonnull align 8 dereferenceable(96) %58, i8 0, i64 96, i1 false)
  br label %67

66:                                               ; preds = %3, %34
  store ptr @lxb_html_tokenizer_state_comment, ptr %0, align 8
  br label %67

67:                                               ; preds = %60, %64, %27, %31, %66, %65, %32, %5
  %.0 = phi ptr [ %6, %5 ], [ %33, %32 ], [ %2, %65 ], [ %1, %66 ], [ %2, %31 ], [ %2, %27 ], [ %2, %64 ], [ %2, %60 ]
  ret ptr %.0
}